; ModuleID = '49/148.cpp'
source_filename = "49/148.cpp"
target datalayout = "e-m:e-p270:32:32-p271:32:32-p272:64:64-i64:64-f80:128-n8:16:32:64-S128"
target triple = "x86_64-pc-linux-gnu"

%"class.std::ios_base::Init" = type { i8 }
%"class.std::basic_istream" = type { i32 (...)**, i64, %"class.std::basic_ios" }
%"class.std::basic_ios" = type { %"class.std::ios_base", %"class.std::basic_ostream"*, i8, i8, %"class.std::basic_streambuf"*, %"class.std::ctype"*, %"class.std::num_put"*, %"class.std::num_get"* }
%"class.std::ios_base" = type { i32 (...)**, i64, i64, i32, i32, i32, %"struct.std::ios_base::_Callback_list"*, %"struct.std::ios_base::_Words", [8 x %"struct.std::ios_base::_Words"], i32, %"struct.std::ios_base::_Words"*, %"class.std::locale" }
%"struct.std::ios_base::_Callback_list" = type { %"struct.std::ios_base::_Callback_list"*, void (i32, %"class.std::ios_base"*, i32)*, i32, i32 }
%"struct.std::ios_base::_Words" = type { i8*, i64 }
%"class.std::locale" = type { %"class.std::locale::_Impl"* }
%"class.std::locale::_Impl" = type { i32, %"class.std::locale::facet"**, i64, %"class.std::locale::facet"**, i8** }
%"class.std::locale::facet" = type <{ i32 (...)**, i32, [4 x i8] }>
%"class.std::basic_ostream" = type { i32 (...)**, %"class.std::basic_ios" }
%"class.std::basic_streambuf" = type { i32 (...)**, i8*, i8*, i8*, i8*, i8*, i8*, %"class.std::locale" }
%"class.std::ctype" = type <{ %"class.std::locale::facet.base", [4 x i8], %struct.__locale_struct*, i8, [7 x i8], i32*, i32*, i16*, i8, [256 x i8], [256 x i8], i8, [6 x i8] }>
%"class.std::locale::facet.base" = type <{ i32 (...)**, i32 }>
%struct.__locale_struct = type { [13 x %struct.__locale_data*], i16*, i32*, i32*, [13 x i8*] }
%struct.__locale_data = type opaque
%"class.std::num_put" = type { %"class.std::locale::facet.base", [4 x i8] }
%"class.std::num_get" = type { %"class.std::locale::facet.base", [4 x i8] }

@_ZStL8__ioinit = internal global %"class.std::ios_base::Init" zeroinitializer, align 1
@__dso_handle = external hidden global i8
@_ZSt3cin = external dso_local global %"class.std::basic_istream", align 8
@_ZSt4cout = external dso_local global %"class.std::basic_ostream", align 8
@llvm.global_ctors = appending global [1 x { i32, void ()*, i8* }] [{ i32, void ()*, i8* } { i32 65535, void ()* @_GLOBAL__sub_I_148.cpp, i8* null }]

; Function Attrs: noinline uwtable
define internal void @__cxx_global_var_init() #0 section ".text.startup" {
  call void @_ZNSt8ios_base4InitC1Ev(%"class.std::ios_base::Init"* @_ZStL8__ioinit)
  %1 = call i32 @__cxa_atexit(void (i8*)* bitcast (void (%"class.std::ios_base::Init"*)* @_ZNSt8ios_base4InitD1Ev to void (i8*)*), i8* getelementptr inbounds (%"class.std::ios_base::Init", %"class.std::ios_base::Init"* @_ZStL8__ioinit, i32 0, i32 0), i8* @__dso_handle) #3
  ret void
}

declare dso_local void @_ZNSt8ios_base4InitC1Ev(%"class.std::ios_base::Init"*) unnamed_addr #1

; Function Attrs: nounwind
declare dso_local void @_ZNSt8ios_base4InitD1Ev(%"class.std::ios_base::Init"*) unnamed_addr #2

; Function Attrs: nounwind
declare dso_local i32 @__cxa_atexit(void (i8*)*, i8*, i8*) #3

; Function Attrs: noinline nounwind uwtable
define dso_local i32 @_Z8isHuiwenPc(i8* %0) #4 {
  %2 = alloca i32, align 4
  %3 = alloca i8*, align 8
  %4 = alloca i32, align 4
  %5 = alloca i32, align 4
  store i8* %0, i8** %3, align 8
  %6 = load i8*, i8** %3, align 8
  %7 = call i64 @strlen(i8* %6) #7
  %8 = trunc i64 %7 to i32
  store i32 %8, i32* %4, align 4
  store i32 0, i32* %5, align 4
  br label %9

9:                                                ; preds = %34, %1
  %10 = load i32, i32* %5, align 4
  %11 = load i32, i32* %4, align 4
  %12 = sub nsw i32 %11, 1
  %13 = sdiv i32 %12, 2
  %14 = icmp sle i32 %10, %13
  br i1 %14, label %15, label %37

15:                                               ; preds = %9
  %16 = load i8*, i8** %3, align 8
  %17 = load i32, i32* %5, align 4
  %18 = sext i32 %17 to i64
  %19 = getelementptr inbounds i8, i8* %16, i64 %18
  %20 = load i8, i8* %19, align 1
  %21 = sext i8 %20 to i32
  %22 = load i8*, i8** %3, align 8
  %23 = load i32, i32* %4, align 4
  %24 = sub nsw i32 %23, 1
  %25 = load i32, i32* %5, align 4
  %26 = sub nsw i32 %24, %25
  %27 = sext i32 %26 to i64
  %28 = getelementptr inbounds i8, i8* %22, i64 %27
  %29 = load i8, i8* %28, align 1
  %30 = sext i8 %29 to i32
  %31 = icmp ne i32 %21, %30
  br i1 %31, label %32, label %33

32:                                               ; preds = %15
  br label %37

33:                                               ; preds = %15
  br label %34

34:                                               ; preds = %33
  %35 = load i32, i32* %5, align 4
  %36 = add nsw i32 %35, 1
  store i32 %36, i32* %5, align 4
  br label %9

37:                                               ; preds = %32, %9
  %38 = load i32, i32* %5, align 4
  %39 = load i32, i32* %4, align 4
  %40 = sub nsw i32 %39, 1
  %41 = sdiv i32 %40, 2
  %42 = icmp sgt i32 %38, %41
  br i1 %42, label %43, label %44

43:                                               ; preds = %37
  store i32 1, i32* %2, align 4
  br label %45

44:                                               ; preds = %37
  store i32 0, i32* %2, align 4
  br label %45

45:                                               ; preds = %44, %43
  %46 = load i32, i32* %2, align 4
  ret i32 %46
}

; Function Attrs: nounwind readonly
declare dso_local i64 @strlen(i8*) #5

; Function Attrs: noinline norecurse uwtable
define dso_local i32 @main() #6 {
  %1 = alloca i32, align 4
  %2 = alloca [501 x i8], align 16
  %3 = alloca [501 x i8], align 16
  %4 = alloca i32, align 4
  %5 = alloca i32, align 4
  %6 = alloca i32, align 4
  store i32 0, i32* %1, align 4
  %7 = getelementptr inbounds [501 x i8], [501 x i8]* %2, i64 0, i64 0
  %8 = call dereferenceable(280) %"class.std::basic_istream"* @_ZStrsIcSt11char_traitsIcEERSt13basic_istreamIT_T0_ES6_PS3_(%"class.std::basic_istream"* dereferenceable(280) @_ZSt3cin, i8* %7)
  %9 = getelementptr inbounds [501 x i8], [501 x i8]* %2, i64 0, i64 0
  %10 = call i64 @strlen(i8* %9) #7
  %11 = trunc i64 %10 to i32
  store i32 %11, i32* %6, align 4
  store i32 2, i32* %4, align 4
  br label %12

12:                                               ; preds = %47, %0
  %13 = load i32, i32* %4, align 4
  %14 = load i32, i32* %6, align 4
  %15 = icmp sle i32 %13, %14
  br i1 %15, label %16, label %50

16:                                               ; preds = %12
  store i32 0, i32* %5, align 4
  br label %17

17:                                               ; preds = %43, %16
  %18 = load i32, i32* %5, align 4
  %19 = load i32, i32* %6, align 4
  %20 = load i32, i32* %4, align 4
  %21 = sub nsw i32 %19, %20
  %22 = icmp sle i32 %18, %21
  br i1 %22, label %23, label %46

23:                                               ; preds = %17
  %24 = getelementptr inbounds [501 x i8], [501 x i8]* %3, i64 0, i64 0
  %25 = getelementptr inbounds [501 x i8], [501 x i8]* %2, i64 0, i64 0
  %26 = load i32, i32* %5, align 4
  %27 = sext i32 %26 to i64
  %28 = getelementptr inbounds i8, i8* %25, i64 %27
  %29 = load i32, i32* %4, align 4
  %30 = sext i32 %29 to i64
  %31 = call i8* @strncpy(i8* %24, i8* %28, i64 %30) #3
  %32 = load i32, i32* %4, align 4
  %33 = sext i32 %32 to i64
  %34 = getelementptr inbounds [501 x i8], [501 x i8]* %3, i64 0, i64 %33
  store i8 0, i8* %34, align 1
  %35 = getelementptr inbounds [501 x i8], [501 x i8]* %3, i64 0, i64 0
  %36 = call i32 @_Z8isHuiwenPc(i8* %35)
  %37 = icmp ne i32 %36, 0
  br i1 %37, label %38, label %42

38:                                               ; preds = %23
  %39 = getelementptr inbounds [501 x i8], [501 x i8]* %3, i64 0, i64 0
  %40 = call dereferenceable(272) %"class.std::basic_ostream"* @_ZStlsISt11char_traitsIcEERSt13basic_ostreamIcT_ES5_PKc(%"class.std::basic_ostream"* dereferenceable(272) @_ZSt4cout, i8* %39)
  %41 = call dereferenceable(272) %"class.std::basic_ostream"* @_ZNSolsEPFRSoS_E(%"class.std::basic_ostream"* %40, %"class.std::basic_ostream"* (%"class.std::basic_ostream"*)* @_ZSt4endlIcSt11char_traitsIcEERSt13basic_ostreamIT_T0_ES6_)
  br label %42

42:                                               ; preds = %38, %23
  br label %43

43:                                               ; preds = %42
  %44 = load i32, i32* %5, align 4
  %45 = add nsw i32 %44, 1
  store i32 %45, i32* %5, align 4
  br label %17

46:                                               ; preds = %17
  br label %47

47:                                               ; preds = %46
  %48 = load i32, i32* %4, align 4
  %49 = add nsw i32 %48, 1
  store i32 %49, i32* %4, align 4
  br label %12

50:                                               ; preds = %12
  ret i32 0
}

declare dso_local dereferenceable(280) %"class.std::basic_istream"* @_ZStrsIcSt11char_traitsIcEERSt13basic_istreamIT_T0_ES6_PS3_(%"class.std::basic_istream"* dereferenceable(280), i8*) #1

; Function Attrs: nounwind
declare dso_local i8* @strncpy(i8*, i8*, i64) #2

declare dso_local dereferenceable(272) %"class.std::basic_ostream"* @_ZStlsISt11char_traitsIcEERSt13basic_ostreamIcT_ES5_PKc(%"class.std::basic_ostream"* dereferenceable(272), i8*) #1

declare dso_local dereferenceable(272) %"class.std::basic_ostream"* @_ZNSolsEPFRSoS_E(%"class.std::basic_ostream"*, %"class.std::basic_ostream"* (%"class.std::basic_ostream"*)*) #1

declare dso_local dereferenceable(272) %"class.std::basic_ostream"* @_ZSt4endlIcSt11char_traitsIcEERSt13basic_ostreamIT_T0_ES6_(%"class.std::basic_ostream"* dereferenceable(272)) #1

; Function Attrs: noinline uwtable
define internal void @_GLOBAL__sub_I_148.cpp() #0 section ".text.startup" {
  call void @__cxx_global_var_init()
  ret void
}


!llvm.module.flags = !{!0}
!llvm.ident = !{!1}

!0 = !{i32 1, !"wchar_size", i32 4}
!1 = !{!"clang version 10.0.0-4ubuntu1 "}
