; ModuleID = 'source-C-CXX/48/148.cpp'
source_filename = "source-C-CXX/48/148.cpp"
target datalayout = "e-m:e-p270:32:32-p271:32:32-p272:64:64-i64:64-f80:128-n8:16:32:64-S128"
target triple = "x86_64-pc-linux-gnu"

%"class.std::ios_base::Init" = type { i8 }
%"class.std::basic_istream" = type { i32 (...)**, i64, %"class.std::basic_ios" }
%"class.std::basic_ios" = type { %"class.std::ios_base", %"class.std::basic_ostream"*, i8, i8, %"class.std::basic_streambuf"*, %"class.std::ctype"*, %"class.std::num_put"*, %"class.std::num_get"* }
%"class.std::ios_base" = type { i32 (...)**, i64, i64, i32, i32, i32, %"struct.std::ios_base::_Callback_list"*, %"struct.std::ios_base::_Words", [8 x %"struct.std::ios_base::_Words"], i32, %"struct.std::ios_base::_Words"*, %"class.std::locale" }
%"struct.std::ios_base::_Callback_list" = type { %"struct.std::ios_base::_Callback_list"*, void (i32, %"class.std::ios_base"*, i32)*, i32, i32 }
%"struct.std::ios_base::_Words" = type { i8*, i64 }
%"class.std::locale" = type { %"class.std::locale::_Impl"* }
%"class.std::locale::_Impl" = type { i32, %"class.std::locale::facet"**, i64, %"class.std::locale::facet"**, i8** }
%"class.std::locale::facet" = type <{ i32 (...)**, i32, [4 x i8] }>
%"class.std::basic_ostream" = type { i32 (...)**, %"class.std::basic_ios" }
%"class.std::basic_streambuf" = type { i32 (...)**, i8*, i8*, i8*, i8*, i8*, i8*, %"class.std::locale" }
%"class.std::ctype" = type <{ %"class.std::locale::facet.base", [4 x i8], %struct.__locale_struct*, i8, [7 x i8], i32*, i32*, i16*, i8, [256 x i8], [256 x i8], i8, [6 x i8] }>
%"class.std::locale::facet.base" = type <{ i32 (...)**, i32 }>
%struct.__locale_struct = type { [13 x %struct.__locale_data*], i16*, i32*, i32*, [13 x i8*] }
%struct.__locale_data = type opaque
%"class.std::num_put" = type { %"class.std::locale::facet.base", [4 x i8] }
%"class.std::num_get" = type { %"class.std::locale::facet.base", [4 x i8] }

@_ZStL8__ioinit = internal global %"class.std::ios_base::Init" zeroinitializer, align 1
@__dso_handle = external hidden global i8
@_ZSt3cin = external global %"class.std::basic_istream", align 8
@_ZSt4cout = external global %"class.std::basic_ostream", align 8
@llvm.global_ctors = appending global [1 x { i32, void ()*, i8* }] [{ i32, void ()*, i8* } { i32 65535, void ()* @_GLOBAL__sub_I_148.cpp, i8* null }]

declare void @_ZNSt8ios_base4InitC1Ev(%"class.std::ios_base::Init"* nonnull align 1 dereferenceable(1)) unnamed_addr #0

; Function Attrs: nounwind
declare void @_ZNSt8ios_base4InitD1Ev(%"class.std::ios_base::Init"* nonnull align 1 dereferenceable(1)) unnamed_addr #1

; Function Attrs: nofree nounwind
declare i32 @__cxa_atexit(void (i8*)*, i8*, i8*) local_unnamed_addr #2

; Function Attrs: mustprogress nofree nounwind readonly sspstrong uwtable willreturn
define dso_local i32 @_Z8isHuiwenPc(i8* nocapture readonly %0) local_unnamed_addr #3 {
  %2 = tail call i64 @strlen(i8* noundef nonnull dereferenceable(1) %0) #11
  %3 = trunc i64 %2 to i32
  %4 = add nsw i32 %3, -1
  %5 = sdiv i32 %4, 2
  %6 = icmp slt i32 %3, 0
  br i1 %6, label %33, label %7

7:                                                ; preds = %1
  %8 = sext i32 %5 to i64
  %9 = call i32 @llvm.smax.i32(i32 %5, i32 0)
  %10 = add nuw nsw i32 %9, 1
  %11 = zext i32 %10 to i64
  %12 = load i8, i8* %0, align 1, !tbaa !5
  %13 = sext i32 %4 to i64
  %14 = getelementptr inbounds i8, i8* %0, i64 %13
  %15 = load i8, i8* %14, align 1, !tbaa !5
  %16 = icmp eq i8 %12, %15
  br i1 %16, label %17, label %33

17:                                               ; preds = %7, %21
  %18 = phi i64 [ %19, %21 ], [ 0, %7 ]
  %19 = add nuw nsw i64 %18, 1
  %20 = icmp eq i64 %19, %11
  br i1 %20, label %30, label %21, !llvm.loop !8

21:                                               ; preds = %17
  %22 = getelementptr inbounds i8, i8* %0, i64 %19
  %23 = load i8, i8* %22, align 1, !tbaa !5
  %24 = trunc i64 %19 to i32
  %25 = sub nsw i32 %4, %24
  %26 = sext i32 %25 to i64
  %27 = getelementptr inbounds i8, i8* %0, i64 %26
  %28 = load i8, i8* %27, align 1, !tbaa !5
  %29 = icmp eq i8 %23, %28
  br i1 %29, label %17, label %30, !llvm.loop !8

30:                                               ; preds = %17, %21
  %31 = icmp sge i64 %18, %8
  %32 = zext i1 %31 to i32
  br label %33

33:                                               ; preds = %30, %7, %1
  %34 = phi i32 [ 1, %1 ], [ 0, %7 ], [ %32, %30 ]
  ret i32 %34
}

; Function Attrs: argmemonly mustprogress nofree nosync nounwind willreturn
declare void @llvm.lifetime.start.p0i8(i64 immarg, i8* nocapture) #4

; Function Attrs: argmemonly mustprogress nofree nounwind readonly willreturn
declare i64 @strlen(i8* nocapture) local_unnamed_addr #5

; Function Attrs: argmemonly mustprogress nofree nosync nounwind willreturn
declare void @llvm.lifetime.end.p0i8(i64 immarg, i8* nocapture) #4

; Function Attrs: mustprogress norecurse sspstrong uwtable
define dso_local i32 @main() local_unnamed_addr #6 {
  %1 = alloca [501 x i8], align 16
  %2 = alloca [501 x i8], align 16
  %3 = getelementptr inbounds [501 x i8], [501 x i8]* %1, i64 0, i64 0
  call void @llvm.lifetime.start.p0i8(i64 501, i8* nonnull %3) #12
  %4 = getelementptr inbounds [501 x i8], [501 x i8]* %2, i64 0, i64 0
  call void @llvm.lifetime.start.p0i8(i64 501, i8* nonnull %4) #12
  call void @_ZSt17__istream_extractRSiPcl(%"class.std::basic_istream"* nonnull align 8 dereferenceable(16) @_ZSt3cin, i8* nonnull %3, i64 501)
  %5 = call i64 @strlen(i8* noundef nonnull %3) #11
  %6 = trunc i64 %5 to i32
  %7 = icmp slt i32 %6, 2
  br i1 %7, label %90, label %8

8:                                                ; preds = %0
  %9 = add i64 %5, 1
  %10 = and i64 %9, 4294967295
  br label %11

11:                                               ; preds = %8, %87
  %12 = phi i64 [ 2, %8 ], [ %88, %87 ]
  %13 = phi i32 [ %6, %8 ], [ %14, %87 ]
  %14 = add i32 %13, -1
  %15 = trunc i64 %12 to i32
  %16 = getelementptr inbounds [501 x i8], [501 x i8]* %2, i64 0, i64 %12
  %17 = icmp slt i32 %6, %15
  br i1 %17, label %87, label %18

18:                                               ; preds = %11
  %19 = zext i32 %14 to i64
  br label %20

20:                                               ; preds = %18, %84
  %21 = phi i64 [ 0, %18 ], [ %85, %84 ]
  %22 = getelementptr inbounds [501 x i8], [501 x i8]* %1, i64 0, i64 %21
  %23 = call i8* @strncpy(i8* noundef nonnull %4, i8* noundef nonnull %22, i64 %12) #12
  store i8 0, i8* %16, align 1, !tbaa !5
  %24 = call i64 @strlen(i8* noundef nonnull dereferenceable(1) %4) #11
  %25 = trunc i64 %24 to i32
  %26 = add nsw i32 %25, -1
  %27 = sdiv i32 %26, 2
  %28 = icmp slt i32 %25, 0
  br i1 %28, label %54, label %29

29:                                               ; preds = %20
  %30 = sext i32 %27 to i64
  %31 = call i32 @llvm.smax.i32(i32 %27, i32 0) #12
  %32 = add nuw nsw i32 %31, 1
  %33 = zext i32 %32 to i64
  %34 = load i8, i8* %4, align 16, !tbaa !5
  %35 = sext i32 %26 to i64
  %36 = getelementptr inbounds [501 x i8], [501 x i8]* %2, i64 0, i64 %35
  %37 = load i8, i8* %36, align 1, !tbaa !5
  %38 = icmp eq i8 %34, %37
  br i1 %38, label %39, label %84

39:                                               ; preds = %29, %43
  %40 = phi i64 [ %41, %43 ], [ 0, %29 ]
  %41 = add nuw nsw i64 %40, 1
  %42 = icmp eq i64 %41, %33
  br i1 %42, label %52, label %43, !llvm.loop !8

43:                                               ; preds = %39
  %44 = getelementptr inbounds [501 x i8], [501 x i8]* %2, i64 0, i64 %41
  %45 = load i8, i8* %44, align 1, !tbaa !5
  %46 = trunc i64 %41 to i32
  %47 = sub nsw i32 %26, %46
  %48 = sext i32 %47 to i64
  %49 = getelementptr inbounds [501 x i8], [501 x i8]* %2, i64 0, i64 %48
  %50 = load i8, i8* %49, align 1, !tbaa !5
  %51 = icmp eq i8 %45, %50
  br i1 %51, label %39, label %52, !llvm.loop !8

52:                                               ; preds = %43, %39
  %53 = icmp slt i64 %40, %30
  br i1 %53, label %84, label %54

54:                                               ; preds = %20, %52
  %55 = call i64 @strlen(i8* noundef nonnull dereferenceable(1) %4) #12
  %56 = call nonnull align 8 dereferenceable(8) %"class.std::basic_ostream"* @_ZSt16__ostream_insertIcSt11char_traitsIcEERSt13basic_ostreamIT_T0_ES6_PKS3_l(%"class.std::basic_ostream"* nonnull align 8 dereferenceable(8) @_ZSt4cout, i8* nonnull %4, i64 %55)
  %57 = load i8*, i8** bitcast (%"class.std::basic_ostream"* @_ZSt4cout to i8**), align 8, !tbaa !10
  %58 = getelementptr i8, i8* %57, i64 -24
  %59 = bitcast i8* %58 to i64*
  %60 = load i64, i64* %59, align 8
  %61 = add nsw i64 %60, 240
  %62 = getelementptr inbounds i8, i8* bitcast (%"class.std::basic_ostream"* @_ZSt4cout to i8*), i64 %61
  %63 = bitcast i8* %62 to %"class.std::ctype"**
  %64 = load %"class.std::ctype"*, %"class.std::ctype"** %63, align 8, !tbaa !12
  %65 = icmp eq %"class.std::ctype"* %64, null
  br i1 %65, label %66, label %67

66:                                               ; preds = %54
  call void @_ZSt16__throw_bad_castv() #13
  unreachable

67:                                               ; preds = %54
  %68 = getelementptr inbounds %"class.std::ctype", %"class.std::ctype"* %64, i64 0, i32 8
  %69 = load i8, i8* %68, align 8, !tbaa !16
  %70 = icmp eq i8 %69, 0
  br i1 %70, label %74, label %71

71:                                               ; preds = %67
  %72 = getelementptr inbounds %"class.std::ctype", %"class.std::ctype"* %64, i64 0, i32 9, i64 10
  %73 = load i8, i8* %72, align 1, !tbaa !5
  br label %80

74:                                               ; preds = %67
  call void @_ZNKSt5ctypeIcE13_M_widen_initEv(%"class.std::ctype"* nonnull align 8 dereferenceable(570) %64)
  %75 = bitcast %"class.std::ctype"* %64 to i8 (%"class.std::ctype"*, i8)***
  %76 = load i8 (%"class.std::ctype"*, i8)**, i8 (%"class.std::ctype"*, i8)*** %75, align 8, !tbaa !10
  %77 = getelementptr inbounds i8 (%"class.std::ctype"*, i8)*, i8 (%"class.std::ctype"*, i8)** %76, i64 6
  %78 = load i8 (%"class.std::ctype"*, i8)*, i8 (%"class.std::ctype"*, i8)** %77, align 8
  %79 = call signext i8 %78(%"class.std::ctype"* nonnull align 8 dereferenceable(570) %64, i8 signext 10)
  br label %80

80:                                               ; preds = %71, %74
  %81 = phi i8 [ %73, %71 ], [ %79, %74 ]
  %82 = call nonnull align 8 dereferenceable(8) %"class.std::basic_ostream"* @_ZNSo3putEc(%"class.std::basic_ostream"* nonnull align 8 dereferenceable(8) @_ZSt4cout, i8 signext %81)
  %83 = call nonnull align 8 dereferenceable(8) %"class.std::basic_ostream"* @_ZNSo5flushEv(%"class.std::basic_ostream"* nonnull align 8 dereferenceable(8) %82)
  br label %84

84:                                               ; preds = %29, %52, %80
  %85 = add nuw nsw i64 %21, 1
  %86 = icmp eq i64 %85, %19
  br i1 %86, label %87, label %20, !llvm.loop !18

87:                                               ; preds = %84, %11
  %88 = add nuw nsw i64 %12, 1
  %89 = icmp eq i64 %88, %10
  br i1 %89, label %90, label %11, !llvm.loop !19

90:                                               ; preds = %87, %0
  call void @llvm.lifetime.end.p0i8(i64 501, i8* nonnull %4) #12
  call void @llvm.lifetime.end.p0i8(i64 501, i8* nonnull %3) #12
  ret i32 0
}

; Function Attrs: argmemonly mustprogress nofree nounwind willreturn
declare i8* @strncpy(i8* noalias returned writeonly, i8* noalias nocapture readonly, i64) local_unnamed_addr #7

declare void @_ZSt17__istream_extractRSiPcl(%"class.std::basic_istream"* nonnull align 8 dereferenceable(16), i8*, i64) local_unnamed_addr #0

declare nonnull align 8 dereferenceable(8) %"class.std::basic_ostream"* @_ZSt16__ostream_insertIcSt11char_traitsIcEERSt13basic_ostreamIT_T0_ES6_PKS3_l(%"class.std::basic_ostream"* nonnull align 8 dereferenceable(8), i8*, i64) local_unnamed_addr #0

declare nonnull align 8 dereferenceable(8) %"class.std::basic_ostream"* @_ZNSo3putEc(%"class.std::basic_ostream"* nonnull align 8 dereferenceable(8), i8 signext) local_unnamed_addr #0

declare nonnull align 8 dereferenceable(8) %"class.std::basic_ostream"* @_ZNSo5flushEv(%"class.std::basic_ostream"* nonnull align 8 dereferenceable(8)) local_unnamed_addr #0

; Function Attrs: noreturn
declare void @_ZSt16__throw_bad_castv() local_unnamed_addr #8

declare void @_ZNKSt5ctypeIcE13_M_widen_initEv(%"class.std::ctype"* nonnull align 8 dereferenceable(570)) local_unnamed_addr #0

; Function Attrs: sspstrong uwtable
define internal void @_GLOBAL__sub_I_148.cpp() #9 section ".text.startup" {
  tail call void @_ZNSt8ios_base4InitC1Ev(%"class.std::ios_base::Init"* nonnull align 1 dereferenceable(1) @_ZStL8__ioinit)
  %1 = tail call i32 @__cxa_atexit(void (i8*)* bitcast (void (%"class.std::ios_base::Init"*)* @_ZNSt8ios_base4InitD1Ev to void (i8*)*), i8* getelementptr inbounds (%"class.std::ios_base::Init", %"class.std::ios_base::Init"* @_ZStL8__ioinit, i64 0, i32 0), i8* nonnull @__dso_handle) #12
  ret void
}

; Function Attrs: nofree nosync nounwind readnone speculatable willreturn
declare i32 @llvm.smax.i32(i32, i32) #10


!llvm.module.flags = !{!0, !1, !2, !3}
!llvm.ident = !{!4}

!0 = !{i32 1, !"wchar_size", i32 4}
!1 = !{i32 7, !"PIC Level", i32 2}
!2 = !{i32 7, !"PIE Level", i32 2}
!3 = !{i32 7, !"uwtable", i32 1}
!4 = !{!"clang version 13.0.0"}
!5 = !{!6, !6, i64 0}
!6 = !{!"omnipotent char", !7, i64 0}
!7 = !{!"Simple C++ TBAA"}
!8 = distinct !{!8, !9}
!9 = !{!"llvm.loop.mustprogress"}
!10 = !{!11, !11, i64 0}
!11 = !{!"vtable pointer", !7, i64 0}
!12 = !{!13, !14, i64 240}
!13 = !{!"_ZTSSt9basic_iosIcSt11char_traitsIcEE", !14, i64 216, !6, i64 224, !15, i64 225, !14, i64 232, !14, i64 240, !14, i64 248, !14, i64 256}
!14 = !{!"any pointer", !6, i64 0}
!15 = !{!"bool", !6, i64 0}
!16 = !{!17, !6, i64 56}
!17 = !{!"_ZTSSt5ctypeIcE", !14, i64 16, !15, i64 24, !14, i64 32, !14, i64 40, !14, i64 48, !6, i64 56, !6, i64 57, !6, i64 313, !6, i64 569}
!18 = distinct !{!18, !9}
!19 = distinct !{!19, !9}
